; Function Attrs: mustprogress nounwind uwtable
define dso_local noundef ptr @_ZNK4llvm24RISCVELFTargetObjectFile21getSectionForConstantERKNS_10DataLayoutENS_11SectionKindEPKNS_8ConstantERNS_5AlignE(ptr noundef nonnull align 8 dereferenceable(1092) %0, ptr noundef nonnull align 8 dereferenceable(512) %1, i32 %2, ptr noundef %3, ptr noundef nonnull align 1 dereferenceable(1) %4) unnamed_addr #0 align 2 {
  %6 = alloca %"class.llvm::TypeSize", align 8
  call void @llvm.lifetime.start.p0(i64 16, ptr nonnull %6)
  %7 = getelementptr inbounds nuw i8, ptr %3, i64 8
  %8 = load ptr, ptr %7, align 8
  %9 = tail call { i64, i8 } @_ZNK4llvm10DataLayout17getTypeSizeInBitsEPNS_4TypeE(ptr noundef nonnull align 8 dereferenceable(512) %1, ptr noundef %8)
  %.fca.0.extract.i13.i.i = extractvalue { i64, i8 } %9, 0
  %.fca.1.extract.i14.i.i = extractvalue { i64, i8 } %9, 1
  %10 = add i64 %.fca.0.extract.i13.i.i, 7
  %11 = and i8 %.fca.1.extract.i14.i.i, 1
  %12 = lshr i64 %10, 3
  %13 = tail call i8 @_ZNK4llvm10DataLayout15getABITypeAlignEPNS_4TypeE(ptr noundef nonnull align 8 dereferenceable(512) %1, ptr noundef %8) #9
  %14 = zext nneg i8 %13 to i64
  %15 = shl nuw i64 1, %14
  %16 = add nsw i64 %12, -1
  %17 = add i64 %16, %15
  %.not.i.i = sub i64 0, %15
  %18 = and i64 %17, %.not.i.i
  store i64 %18, ptr %6, align 8
  %.sroa.2.0..sroa_idx.i = getelementptr inbounds nuw i8, ptr %6, i64 8
  store i8 %11, ptr %.sroa.2.0..sroa_idx.i, align 8
  %19 = call noundef i64 @_ZNK4llvm8TypeSizecvmEv(ptr noundef nonnull align 8 dereferenceable(9) %6) #9
  %20 = getelementptr inbounds nuw i8, ptr %0, i64 1088
  %21 = load i32, ptr %20, align 8
  %.fr.i.i = freeze i32 %21
  %22 = zext i32 %.fr.i.i to i64
  %23 = add i64 %19, -1
  %24 = icmp ult i64 %23, %22
  call void @llvm.lifetime.end.p0(i64 16, ptr nonnull %6)
  br i1 %24, label %25, label %41

25:                                               ; preds = %5
  %.sroa.0.0.extract.trunc = trunc i32 %2 to i8
  switch i8 %.sroa.0.0.extract.trunc, label %38 [
    i8 8, label %26
    i8 9, label %29
    i8 10, label %32
    i8 11, label %35
  ]

26:                                               ; preds = %25
  %27 = getelementptr inbounds nuw i8, ptr %0, i64 1048
  %28 = load ptr, ptr %27, align 8
  br label %43

29:                                               ; preds = %25
  %30 = getelementptr inbounds nuw i8, ptr %0, i64 1056
  %31 = load ptr, ptr %30, align 8
  br label %43

32:                                               ; preds = %25
  %33 = getelementptr inbounds nuw i8, ptr %0, i64 1064
  %34 = load ptr, ptr %33, align 8
  br label %43

35:                                               ; preds = %25
  %36 = getelementptr inbounds nuw i8, ptr %0, i64 1072
  %37 = load ptr, ptr %36, align 8
  br label %43

38:                                               ; preds = %25
  %39 = getelementptr inbounds nuw i8, ptr %0, i64 1040
  %40 = load ptr, ptr %39, align 8
  br label %43

41:                                               ; preds = %5
  %42 = call noundef ptr @_ZNK4llvm27TargetLoweringObjectFileELF21getSectionForConstantERKNS_10DataLayoutENS_11SectionKindEPKNS_8ConstantERNS_5AlignE(ptr noundef nonnull align 8 dereferenceable(1026) %0, ptr noundef nonnull align 8 dereferenceable(512) %1, i32 %2, ptr noundef nonnull %3, ptr noundef nonnull align 1 dereferenceable(1) %4) #9
  br label %43

43:                                               ; preds = %41, %38, %35, %32, %29, %26
  %.0 = phi ptr [ %28, %26 ], [ %31, %29 ], [ %34, %32 ], [ %37, %35 ], [ %40, %38 ], [ %42, %41 ]
  ret ptr %.0
}